; Function Attrs: mustprogress nounwind uwtable
define dso_local void @_ZN4llvm3sys4path6nativeERNS_15SmallVectorImplIcEENS1_5StyleE(ptr noundef nonnull align 8 dereferenceable(24) %0, i32 noundef %1) local_unnamed_addr #0 {
  %3 = alloca %"class.llvm::SmallString.10", align 8
  %4 = tail call noundef zeroext i1 @_ZNK4llvm15SmallVectorBaseImE5emptyEv(ptr noundef nonnull align 8 dereferenceable(24) %0) #30
  br i1 %4, label %_ZN4llvm11SmallStringILj128EED2Ev.exit, label %5

5:                                                ; preds = %2
  %switch.i.i = icmp ugt i32 %1, 1
  %6 = load ptr, ptr %0, align 8
  %7 = tail call noundef i64 @_ZNK4llvm15SmallVectorBaseImE4sizeEv(ptr noundef nonnull align 8 dereferenceable(24) %0) #30
  %8 = getelementptr inbounds i8, ptr %6, i64 %7
  %.not28 = icmp eq i64 %7, 0
  br i1 %switch.i.i, label %9, label %36

9:                                                ; preds = %5
  br i1 %.not28, label %._crit_edge, label %.lr.ph

.lr.ph:                                           ; preds = %9
  %10 = icmp eq i32 %1, 3
  %..i = select i1 %10, i8 92, i8 47
  br label %11

11:                                               ; preds = %.lr.ph, %13
  %.029 = phi ptr [ %6, %.lr.ph ], [ %14, %13 ]
  %12 = load i8, ptr %.029, align 1
  switch i8 %12, label %13 [
    i8 47, label %_ZN4llvm3sys4path12is_separatorEcNS1_5StyleE.exit.thread
    i8 92, label %_ZN4llvm3sys4path12is_separatorEcNS1_5StyleE.exit.thread
  ]

_ZN4llvm3sys4path12is_separatorEcNS1_5StyleE.exit.thread: ; preds = %11, %11
  store i8 %..i, ptr %.029, align 1
  br label %13

13:                                               ; preds = %11, %_ZN4llvm3sys4path12is_separatorEcNS1_5StyleE.exit.thread
  %14 = getelementptr inbounds i8, ptr %.029, i64 1
  %.not = icmp eq ptr %14, %8
  br i1 %.not, label %._crit_edge, label %11

._crit_edge:                                      ; preds = %13, %9
  %15 = load ptr, ptr %0, align 8
  %16 = load i8, ptr %15, align 1
  %17 = icmp eq i8 %16, 126
  br i1 %17, label %18, label %_ZN4llvm11SmallStringILj128EED2Ev.exit

18:                                               ; preds = %._crit_edge
  %19 = tail call noundef i64 @_ZNK4llvm15SmallVectorBaseImE4sizeEv(ptr noundef nonnull align 8 dereferenceable(24) %0) #30
  %20 = icmp eq i64 %19, 1
  br i1 %20, label %_ZN4llvm3sys4path12is_separatorEcNS1_5StyleE.exit24.thread, label %21

21:                                               ; preds = %18
  %22 = load ptr, ptr %0, align 8
  %23 = getelementptr inbounds i8, ptr %22, i64 1
  %24 = load i8, ptr %23, align 1
  switch i8 %24, label %_ZN4llvm11SmallStringILj128EED2Ev.exit [
    i8 47, label %_ZN4llvm3sys4path12is_separatorEcNS1_5StyleE.exit24.thread
    i8 92, label %_ZN4llvm3sys4path12is_separatorEcNS1_5StyleE.exit24.thread
  ]

_ZN4llvm3sys4path12is_separatorEcNS1_5StyleE.exit24.thread: ; preds = %21, %21, %18
  %25 = getelementptr inbounds i8, ptr %3, i64 24
  call void @_ZN4llvm15SmallVectorBaseImEC2EPvm(ptr noundef nonnull align 8 dereferenceable(24) %3, ptr noundef nonnull %25, i64 noundef 128) #30
  %26 = call noundef zeroext i1 @_ZN4llvm3sys4path14home_directoryERNS_15SmallVectorImplIcEE(ptr noundef nonnull align 8 dereferenceable(24) %3)
  %27 = load ptr, ptr %0, align 8
  %28 = getelementptr inbounds i8, ptr %27, i64 1
  %29 = call noundef i64 @_ZNK4llvm15SmallVectorBaseImE4sizeEv(ptr noundef nonnull align 8 dereferenceable(24) %0) #30
  %30 = getelementptr inbounds i8, ptr %27, i64 %29
  call void @_ZN4llvm15SmallVectorImplIcE6appendIPcvEEvT_S4_(ptr noundef nonnull align 8 dereferenceable(24) %3, ptr noundef nonnull %28, ptr noundef %30)
  %31 = call noundef nonnull align 8 dereferenceable(24) ptr @_ZN4llvm15SmallVectorImplIcEaSERKS1_(ptr noundef nonnull align 8 dereferenceable(24) %0, ptr noundef nonnull align 8 dereferenceable(24) %3)
  %32 = call noundef i64 @_ZNK4llvm15SmallVectorBaseImE4sizeEv(ptr noundef nonnull align 8 dereferenceable(24) %3) #30
  %33 = load ptr, ptr %3, align 8
  %34 = icmp eq ptr %33, %25
  br i1 %34, label %_ZN4llvm11SmallStringILj128EED2Ev.exit, label %35

35:                                               ; preds = %_ZN4llvm3sys4path12is_separatorEcNS1_5StyleE.exit24.thread
  call void @free(ptr noundef %33) #30
  br label %_ZN4llvm11SmallStringILj128EED2Ev.exit

36:                                               ; preds = %5
  br i1 %.not28, label %_ZN4llvm11SmallStringILj128EED2Ev.exit, label %.lr.ph.i

.lr.ph.i:                                         ; preds = %36, %40
  %.08.i = phi ptr [ %41, %40 ], [ %6, %36 ]
  %37 = load i8, ptr %.08.i, align 1
  %38 = icmp eq i8 %37, 92
  br i1 %38, label %39, label %40

39:                                               ; preds = %.lr.ph.i
  store i8 47, ptr %.08.i, align 1
  br label %40

40:                                               ; preds = %39, %.lr.ph.i
  %41 = getelementptr inbounds i8, ptr %.08.i, i64 1
  %.not.i = icmp eq ptr %41, %8
  br i1 %.not.i, label %_ZN4llvm11SmallStringILj128EED2Ev.exit, label %.lr.ph.i, !llvm.loop !26

_ZN4llvm11SmallStringILj128EED2Ev.exit:           ; preds = %40, %21, %36, %35, %_ZN4llvm3sys4path12is_separatorEcNS1_5StyleE.exit24.thread, %._crit_edge, %2
  ret void
}